; Function Attrs: nounwind uwtable
define ptr @l_Lean_IR_ExplicitRC_getJPLiveVars(ptr noundef readonly captures(none) %0, ptr noundef %1) local_unnamed_addr #0 {
  %3 = getelementptr inbounds nuw i8, ptr %0, i64 32
  %4 = load ptr, ptr %3, align 8, !tbaa !4
  %5 = tail call ptr @l_Lean_RBNode_find___at___private_Lean_Compiler_IR_LiveVars_0__Lean_IR_LiveVars_collectJP___spec__1(ptr noundef %4, ptr noundef %1) #6
  %6 = ptrtoint ptr %5 to i64
  %7 = and i64 %6, 1
  %.not.i10 = icmp eq i64 %7, 0
  br i1 %.not.i10, label %11, label %8

8:                                                ; preds = %2
  %9 = lshr i64 %6, 1
  %10 = trunc i64 %9 to i32
  br label %lean_obj_tag.exit

11:                                               ; preds = %2
  %12 = getelementptr i8, ptr %5, i64 4
  %.val.i = load i32, ptr %12, align 4
  %13 = lshr i32 %.val.i, 24
  br label %lean_obj_tag.exit

lean_obj_tag.exit:                                ; preds = %8, %11
  %.0.i = phi i32 [ %10, %8 ], [ %13, %11 ]
  %14 = icmp eq i32 %.0.i, 0
  br i1 %14, label %lean_dec.exit, label %15

15:                                               ; preds = %lean_obj_tag.exit
  %16 = getelementptr inbounds nuw i8, ptr %5, i64 8
  %17 = load ptr, ptr %16, align 8, !tbaa !4
  %18 = ptrtoint ptr %17 to i64
  %19 = and i64 %18, 1
  %.not = icmp eq i64 %19, 0
  br i1 %.not, label %20, label %lean_inc.exit

20:                                               ; preds = %15
  %.val.i11 = load i32, ptr %17, align 4, !tbaa !8
  %21 = icmp sgt i32 %.val.i11, 0
  br i1 %21, label %22, label %24, !prof !11

22:                                               ; preds = %20
  %23 = add nuw i32 %.val.i11, 1
  store i32 %23, ptr %17, align 4, !tbaa !8
  br label %lean_inc.exit

24:                                               ; preds = %20
  %.not.i12 = icmp eq i32 %.val.i11, 0
  br i1 %.not.i12, label %lean_inc.exit, label %25

25:                                               ; preds = %24
  tail call void @lean_inc_ref_cold(ptr noundef nonnull %17) #6
  br label %lean_inc.exit

lean_inc.exit:                                    ; preds = %25, %24, %22, %15
  br i1 %.not.i10, label %26, label %lean_dec.exit

26:                                               ; preds = %lean_inc.exit
  %27 = load i32, ptr %5, align 4, !tbaa !8
  %28 = icmp sgt i32 %27, 1
  br i1 %28, label %29, label %31, !prof !11

29:                                               ; preds = %26
  %30 = add nsw i32 %27, -1
  store i32 %30, ptr %5, align 4, !tbaa !8
  br label %lean_dec.exit

31:                                               ; preds = %26
  %.not.i = icmp eq i32 %27, 0
  br i1 %.not.i, label %lean_dec.exit, label %32

32:                                               ; preds = %31
  tail call void @lean_dec_ref_cold(ptr noundef nonnull %5) #6
  br label %lean_dec.exit

lean_dec.exit:                                    ; preds = %lean_inc.exit, %29, %31, %32, %lean_obj_tag.exit
  %.0 = phi ptr [ inttoptr (i64 1 to ptr), %lean_obj_tag.exit ], [ %17, %32 ], [ %17, %31 ], [ %17, %29 ], [ %17, %lean_inc.exit ]
  ret ptr %.0
}